; Function Attrs: nounwind uwtable
define dso_local void @bioCreateCloseJob(i32 noundef %0, i32 noundef %1, i32 noundef %2) local_unnamed_addr #0 {
  %4 = tail call noalias dereferenceable_or_null(32) ptr @zmalloc(i64 noundef 32) #15
  %5 = getelementptr inbounds nuw i8, ptr %4, i64 4
  store i32 %0, ptr %5, align 4, !tbaa !61
  %6 = getelementptr inbounds nuw i8, ptr %4, i64 16
  %7 = trunc i32 %1 to i8
  %8 = load i8, ptr %6, align 8
  %9 = and i8 %7, 1
  %10 = and i8 %8, -4
  %11 = trunc i32 %2 to i8
  %12 = shl i8 %11, 1
  %13 = and i8 %12, 2
  %14 = or disjoint i8 %13, %9
  %15 = or disjoint i8 %14, %10
  store i8 %15, ptr %6, align 8
  store i32 0, ptr %4, align 8, !tbaa !61
  %16 = tail call i32 @pthread_mutex_lock(ptr noundef nonnull @bio_mutex) #11
  %17 = load ptr, ptr @bio_jobs, align 16, !tbaa !5
  %18 = tail call ptr @listAddNodeTail(ptr noundef %17, ptr noundef nonnull %4) #11
  %19 = load i64, ptr @bio_jobs_counter, align 16, !tbaa !43
  %20 = add i64 %19, 1
  store i64 %20, ptr @bio_jobs_counter, align 16, !tbaa !43
  %21 = tail call i32 @pthread_cond_signal(ptr noundef nonnull @bio_newjob_cond) #11
  %22 = tail call i32 @pthread_mutex_unlock(ptr noundef nonnull @bio_mutex) #11
  ret void
}